target datalayout = "e-m:e-p270:32:32-p271:32:32-p272:64:64-i64:64-i128:128-f80:128-n8:16:32:64-S128"
target triple = "x86_64-pc-linux-gnu"

%struct.AVTXContext = type { i32, i32, ptr, ptr, ptr, ptr, [4 x ptr], i32, [4 x ptr], ptr, i32, i64, i32, float, double, ptr }

; Function Attrs: cold nounwind optsize uwtable
define internal i32 @ff_tx_mdct_naive_init_double_c(ptr noundef %0, ptr noundef %1, i64 noundef %2, ptr noundef %3, i32 noundef %4, i32 noundef %5, ptr noundef %6) #0 {
  %8 = alloca ptr, align 8
  %9 = alloca ptr, align 8
  %10 = alloca i64, align 8
  %11 = alloca ptr, align 8
  %12 = alloca i32, align 4
  %13 = alloca i32, align 4
  %14 = alloca ptr, align 8
  store ptr %0, ptr %8, align 8, !tbaa !17
  store ptr %1, ptr %9, align 8, !tbaa !60
  store i64 %2, ptr %10, align 8, !tbaa !30
  store ptr %3, ptr %11, align 8, !tbaa !61
  store i32 %4, ptr %12, align 4, !tbaa !4
  store i32 %5, ptr %13, align 4, !tbaa !4
  store ptr %6, ptr %14, align 8, !tbaa !8
  %15 = load ptr, ptr %14, align 8, !tbaa !8
  %16 = load double, ptr %15, align 8, !tbaa !29
  %17 = load ptr, ptr %8, align 8, !tbaa !17
  %18 = getelementptr inbounds nuw %struct.AVTXContext, ptr %17, i32 0, i32 14
  store double %16, ptr %18, align 8, !tbaa !28
  %19 = load ptr, ptr %8, align 8, !tbaa !17
  %20 = getelementptr inbounds nuw %struct.AVTXContext, ptr %19, i32 0, i32 14
  %21 = load double, ptr %20, align 8, !tbaa !28
  %22 = fptrunc nsz double %21 to float
  %23 = load ptr, ptr %8, align 8, !tbaa !17
  %24 = getelementptr inbounds nuw %struct.AVTXContext, ptr %23, i32 0, i32 13
  store float %22, ptr %24, align 4, !tbaa !93
  ret i32 0
}