; Function Attrs: cold mustprogress nofree norecurse nosync nounwind optsize willreturn memory(argmem: readwrite) uwtable
define internal noundef i32 @ff_tx_mdct_naive_init_double_c(ptr noundef writeonly captures(none) initializes((140, 152)) %0, ptr readnone captures(none) %1, i64 %2, ptr readnone captures(none) %3, i32 %4, i32 %5, ptr noundef readonly captures(none) %6) #14 {
  %8 = load double, ptr %6, align 8, !tbaa !27
  %9 = getelementptr inbounds nuw i8, ptr %0, i64 144
  store double %8, ptr %9, align 8, !tbaa !25
  %10 = fptrunc nsz double %8 to float
  %11 = getelementptr inbounds nuw i8, ptr %0, i64 140
  store float %10, ptr %11, align 4, !tbaa !84
  ret i32 0
}